target datalayout = "e-m:e-p270:32:32-p271:32:32-p272:64:64-i64:64-i128:128-f80:128-n8:16:32:64-S128"
target triple = "x86_64-pc-linux-gnu"

%struct.t_mat = type { i32, i32, ptr, i8, float, float, float, ptr, ptr }

; Function Attrs: mustprogress nounwind uwtable
define linkonce_odr noundef float @_ZN3gmx6squareIfEET_S1_(float noundef %0) #2 comdat {
  %2 = alloca float, align 4
  store float %0, ptr %2, align 4
  %3 = load float, ptr %2, align 4
  %4 = load float, ptr %2, align 4
  %5 = fmul float %3, %4
  ret float %5
}

; Function Attrs: mustprogress uwtable
define noundef float @_Z10mat_energyP5t_mat(ptr noundef %0) #0 {
  %2 = alloca ptr, align 8
  %3 = alloca i32, align 4
  %4 = alloca float, align 4
  store ptr %0, ptr %2, align 8
  store float 0.000000e+00, ptr %4, align 4
  store i32 0, ptr %3, align 4
  br label %5

5:                                                ; preds = %28, %1
  %6 = load i32, ptr %3, align 4
  %7 = load ptr, ptr %2, align 8
  %8 = getelementptr inbounds %struct.t_mat, ptr %7, i32 0, i32 1
  %9 = load i32, ptr %8, align 4
  %10 = sub nsw i32 %9, 1
  %11 = icmp slt i32 %6, %10
  br i1 %11, label %12, label %31

12:                                               ; preds = %5
  %13 = load ptr, ptr %2, align 8
  %14 = getelementptr inbounds %struct.t_mat, ptr %13, i32 0, i32 8
  %15 = load ptr, ptr %14, align 8
  %16 = load i32, ptr %3, align 4
  %17 = sext i32 %16 to i64
  %18 = getelementptr inbounds ptr, ptr %15, i64 %17
  %19 = load ptr, ptr %18, align 8
  %20 = load i32, ptr %3, align 4
  %21 = add nsw i32 %20, 1
  %22 = sext i32 %21 to i64
  %23 = getelementptr inbounds float, ptr %19, i64 %22
  %24 = load float, ptr %23, align 4
  %25 = call noundef float @_ZN3gmx6squareIfEET_S1_(float noundef %24)
  %26 = load float, ptr %4, align 4
  %27 = fadd float %26, %25
  store float %27, ptr %4, align 4
  br label %28

28:                                               ; preds = %12
  %29 = load i32, ptr %3, align 4
  %30 = add nsw i32 %29, 1
  store i32 %30, ptr %3, align 4
  br label %5, !llvm.loop !9

31:                                               ; preds = %5
  %32 = load float, ptr %4, align 4
  ret float %32
}