; Function Attrs: mustprogress nofree norecurse nosync nounwind willreturn memory(read, inaccessiblemem: none) uwtable
define noundef float @_Z10mat_energyP5t_mat(ptr nocapture noundef readonly %0) local_unnamed_addr #6 {
  %2 = getelementptr inbounds i8, ptr %0, i64 4
  %3 = load i32, ptr %2, align 4
  %4 = icmp sgt i32 %3, 1
  br i1 %4, label %.lr.ph, label %._crit_edge

.lr.ph:                                           ; preds = %1
  %5 = add nsw i32 %3, -1
  %6 = getelementptr inbounds i8, ptr %0, i64 40
  %7 = load ptr, ptr %6, align 8
  %wide.trip.count = zext nneg i32 %5 to i64
  br label %8

8:                                                ; preds = %.lr.ph, %8
  %indvars.iv = phi i64 [ 0, %.lr.ph ], [ %indvars.iv.next, %8 ]
  %.09 = phi float [ 0.000000e+00, %.lr.ph ], [ %14, %8 ]
  %9 = getelementptr inbounds ptr, ptr %7, i64 %indvars.iv
  %10 = load ptr, ptr %9, align 8
  %indvars.iv.next = add nuw nsw i64 %indvars.iv, 1
  %11 = getelementptr inbounds float, ptr %10, i64 %indvars.iv.next
  %12 = load float, ptr %11, align 4
  %13 = fmul float %12, %12
  %14 = fadd float %.09, %13
  %exitcond.not = icmp eq i64 %indvars.iv.next, %wide.trip.count
  br i1 %exitcond.not, label %._crit_edge, label %8, !llvm.loop !9

._crit_edge:                                      ; preds = %8, %1
  %.0.lcssa = phi float [ 0.000000e+00, %1 ], [ %14, %8 ]
  ret float %.0.lcssa
}